; Function Attrs: mustprogress nofree norecurse nosync nounwind willreturn memory(argmem: write) uwtable
define internal void @_ZZN8facebook3jsi7Runtime15instrumentationEvEN17NoInstrumentation11getHeapInfoB5cxx11Eb(ptr noalias sret(%"class.std::unordered_map") align 8 %agg.result, ptr nocapture nonnull readnone align 8 %this, i1 zeroext %0) unnamed_addr #3 align 2 {
entry:
  %1 = getelementptr inbounds i8, ptr %agg.result, i64 32
  store i64 0, ptr %1, align 8
  %_M_single_bucket.i.i = getelementptr inbounds i8, ptr %agg.result, i64 48
  store ptr %_M_single_bucket.i.i, ptr %agg.result, align 8
  %_M_bucket_count.i.i = getelementptr inbounds i8, ptr %agg.result, i64 8
  store i64 1, ptr %_M_bucket_count.i.i, align 8
  %_M_before_begin.i.i = getelementptr inbounds i8, ptr %agg.result, i64 16
  %_M_rehash_policy.i.i = getelementptr inbounds i8, ptr %agg.result, i64 32
  tail call void @llvm.memset.p0.i64(ptr noundef nonnull align 8 dereferenceable(16) %_M_before_begin.i.i, i8 0, i64 16, i1 false)
  store float 1.000000e+00, ptr %_M_rehash_policy.i.i, align 8
  %_M_next_resize.i.i.i = getelementptr inbounds i8, ptr %agg.result, i64 40
  tail call void @llvm.memset.p0.i64(ptr noundef nonnull align 8 dereferenceable(16) %_M_next_resize.i.i.i, i8 0, i64 16, i1 false)
  ret void
}